target datalayout = "e-m:e-p270:32:32-p271:32:32-p272:64:64-i64:64-i128:128-f80:128-n8:16:32:64-S128"
target triple = "x86_64-pc-linux-gnu"

%struct.yy_buffer_state = type { ptr, ptr, ptr, i32, i32, i32, i32, i32, i32, i32, i32, i32 }

@.str.36 = private unnamed_addr constant [42 x i8] c"out of dynamic memory in yy_scan_buffer()\00", align 1

; Function Attrs: mustprogress nounwind uwtable
define dso_local noundef ptr @_Z13V3PreLexallocm(i64 noundef %0) #4 {
  %2 = alloca i64, align 8
  store i64 %0, ptr %2, align 8, !tbaa !11
  %3 = load i64, ptr %2, align 8, !tbaa !11
  %4 = call noalias ptr @malloc(i64 noundef %3) #29
  ret ptr %4
}

; Function Attrs: mustprogress uwtable
define dso_local noundef ptr @_Z20V3PreLex_scan_bufferPcm(ptr noundef %0, i64 noundef %1) #5 {
  %3 = alloca ptr, align 8
  %4 = alloca ptr, align 8
  %5 = alloca i64, align 8
  %6 = alloca ptr, align 8
  %7 = alloca i32, align 4
  store ptr %0, ptr %4, align 8, !tbaa !4
  store i64 %1, ptr %5, align 8, !tbaa !11
  call void @llvm.lifetime.start.p0(i64 8, ptr %6) #3
  %8 = load i64, ptr %5, align 8, !tbaa !11
  %9 = icmp ult i64 %8, 2
  br i1 %9, label %26, label %10

10:                                               ; preds = %2
  %11 = load ptr, ptr %4, align 8, !tbaa !4
  %12 = load i64, ptr %5, align 8, !tbaa !11
  %13 = sub i64 %12, 2
  %14 = getelementptr inbounds nuw i8, ptr %11, i64 %13
  %15 = load i8, ptr %14, align 1, !tbaa !20
  %16 = sext i8 %15 to i32
  %17 = icmp ne i32 %16, 0
  br i1 %17, label %26, label %18

18:                                               ; preds = %10
  %19 = load ptr, ptr %4, align 8, !tbaa !4
  %20 = load i64, ptr %5, align 8, !tbaa !11
  %21 = sub i64 %20, 1
  %22 = getelementptr inbounds nuw i8, ptr %19, i64 %21
  %23 = load i8, ptr %22, align 1, !tbaa !20
  %24 = sext i8 %23 to i32
  %25 = icmp ne i32 %24, 0
  br i1 %25, label %26, label %27

26:                                               ; preds = %18, %10, %2
  store ptr null, ptr %3, align 8
  store i32 1, ptr %7, align 4
  br label %62

27:                                               ; preds = %18
  %28 = call noundef ptr @_Z13V3PreLexallocm(i64 noundef 64)
  store ptr %28, ptr %6, align 8, !tbaa !18
  %29 = load ptr, ptr %6, align 8, !tbaa !18
  %30 = icmp ne ptr %29, null
  br i1 %30, label %32, label %31

31:                                               ; preds = %27
  call void @_ZL14yy_fatal_errorPKc(ptr noundef @.str.36) #26
  unreachable

32:                                               ; preds = %27
  %33 = load i64, ptr %5, align 8, !tbaa !11
  %34 = sub i64 %33, 2
  %35 = trunc i64 %34 to i32
  %36 = load ptr, ptr %6, align 8, !tbaa !18
  %37 = getelementptr inbounds nuw %struct.yy_buffer_state, ptr %36, i32 0, i32 3
  store i32 %35, ptr %37, align 8, !tbaa !65
  %38 = load ptr, ptr %4, align 8, !tbaa !4
  %39 = load ptr, ptr %6, align 8, !tbaa !18
  %40 = getelementptr inbounds nuw %struct.yy_buffer_state, ptr %39, i32 0, i32 1
  store ptr %38, ptr %40, align 8, !tbaa !63
  %41 = load ptr, ptr %6, align 8, !tbaa !18
  %42 = getelementptr inbounds nuw %struct.yy_buffer_state, ptr %41, i32 0, i32 2
  store ptr %38, ptr %42, align 8, !tbaa !67
  %43 = load ptr, ptr %6, align 8, !tbaa !18
  %44 = getelementptr inbounds nuw %struct.yy_buffer_state, ptr %43, i32 0, i32 5
  store i32 0, ptr %44, align 8, !tbaa !66
  %45 = load ptr, ptr %6, align 8, !tbaa !18
  %46 = getelementptr inbounds nuw %struct.yy_buffer_state, ptr %45, i32 0, i32 0
  store ptr null, ptr %46, align 8, !tbaa !62
  %47 = load ptr, ptr %6, align 8, !tbaa !18
  %48 = getelementptr inbounds nuw %struct.yy_buffer_state, ptr %47, i32 0, i32 3
  %49 = load i32, ptr %48, align 8, !tbaa !65
  %50 = load ptr, ptr %6, align 8, !tbaa !18
  %51 = getelementptr inbounds nuw %struct.yy_buffer_state, ptr %50, i32 0, i32 4
  store i32 %49, ptr %51, align 4, !tbaa !61
  %52 = load ptr, ptr %6, align 8, !tbaa !18
  %53 = getelementptr inbounds nuw %struct.yy_buffer_state, ptr %52, i32 0, i32 6
  store i32 0, ptr %53, align 4, !tbaa !156
  %54 = load ptr, ptr %6, align 8, !tbaa !18
  %55 = getelementptr inbounds nuw %struct.yy_buffer_state, ptr %54, i32 0, i32 7
  store i32 1, ptr %55, align 8, !tbaa !21
  %56 = load ptr, ptr %6, align 8, !tbaa !18
  %57 = getelementptr inbounds nuw %struct.yy_buffer_state, ptr %56, i32 0, i32 10
  store i32 0, ptr %57, align 4, !tbaa !151
  %58 = load ptr, ptr %6, align 8, !tbaa !18
  %59 = getelementptr inbounds nuw %struct.yy_buffer_state, ptr %58, i32 0, i32 11
  store i32 0, ptr %59, align 8, !tbaa !60
  %60 = load ptr, ptr %6, align 8, !tbaa !18
  call void @_Z25V3PreLex_switch_to_bufferP15yy_buffer_state(ptr noundef %60)
  %61 = load ptr, ptr %6, align 8, !tbaa !18
  store ptr %61, ptr %3, align 8
  store i32 1, ptr %7, align 4
  br label %62

62:                                               ; preds = %32, %26
  call void @llvm.lifetime.end.p0(i64 8, ptr %6) #3
  %63 = load ptr, ptr %3, align 8
  ret ptr %63
}